target datalayout = "e-m:e-p270:32:32-p271:32:32-p272:64:64-i64:64-i128:128-f80:128-n8:16:32:64-S128"
target triple = "x86_64-pc-linux-gnu"

%struct.FunctionCallInfoBaseData = type { ptr, ptr, ptr, i32, i8, i16, [0 x %struct.NullableDatum] }
%struct.NullableDatum = type { i64, i8 }

@.str.1 = private unnamed_addr constant [12 x i8] c"xlogfuncs.c\00", align 1
@.str.6 = private unnamed_addr constant [24 x i8] c"recovery is in progress\00", align 1
@.str.7 = private unnamed_addr constant [58 x i8] c"WAL control functions cannot be executed during recovery.\00", align 1
@wal_level = external global i32, align 4
@__func__.pg_create_restore_point = private unnamed_addr constant [24 x i8] c"pg_create_restore_point\00", align 1
@.str.11 = private unnamed_addr constant [54 x i8] c"WAL level not sufficient for creating a restore point\00", align 1
@.str.12 = private unnamed_addr constant [67 x i8] c"\22wal_level\22 must be set to \22replica\22 or \22logical\22 at server start.\00", align 1
@.str.13 = private unnamed_addr constant [57 x i8] c"value too long for restore point (maximum %d characters)\00", align 1

; Function Attrs: inlinehint nounwind uwtable
define internal i64 @Int64GetDatum(i64 noundef %0) #3 {
  %2 = alloca i64, align 8
  store i64 %0, ptr %2, align 8
  %3 = load i64, ptr %2, align 8
  ret i64 %3
}

; Function Attrs: inlinehint nounwind uwtable
define internal i64 @LSNGetDatum(i64 noundef %0) #3 {
  %2 = alloca i64, align 8
  store i64 %0, ptr %2, align 8
  %3 = load i64, ptr %2, align 8
  %4 = call i64 @Int64GetDatum(i64 noundef %3)
  ret i64 %4
}

; Function Attrs: inlinehint nounwind uwtable
define internal ptr @DatumGetPointer(i64 noundef %0) #3 {
  %2 = alloca i64, align 8
  store i64 %0, ptr %2, align 8
  %3 = load i64, ptr %2, align 8
  %4 = inttoptr i64 %3 to ptr
  ret ptr %4
}

; Function Attrs: nounwind uwtable
define dso_local i64 @pg_create_restore_point(ptr noundef %0) #0 {
  %2 = alloca ptr, align 8
  %3 = alloca ptr, align 8
  %4 = alloca ptr, align 8
  %5 = alloca i64, align 8
  store ptr %0, ptr %2, align 8
  call void @llvm.lifetime.start.p0(i64 8, ptr %3) #9
  %6 = load ptr, ptr %2, align 8
  %7 = getelementptr inbounds nuw %struct.FunctionCallInfoBaseData, ptr %6, i32 0, i32 6
  %8 = getelementptr inbounds [0 x %struct.NullableDatum], ptr %7, i64 0, i64 0
  %9 = getelementptr inbounds nuw %struct.NullableDatum, ptr %8, i32 0, i32 0
  %10 = load i64, ptr %9, align 8
  %11 = call ptr @DatumGetPointer(i64 noundef %10)
  %12 = call ptr @pg_detoast_datum_packed(ptr noundef %11)
  store ptr %12, ptr %3, align 8
  call void @llvm.lifetime.start.p0(i64 8, ptr %4) #9
  call void @llvm.lifetime.start.p0(i64 8, ptr %5) #9
  %13 = call zeroext i1 @RecoveryInProgress()
  br i1 %13, label %14, label %27

14:                                               ; preds = %1
  br label %15

15:                                               ; preds = %14
  br i1 true, label %16, label %18

16:                                               ; preds = %15
  %17 = call zeroext i1 @errstart_cold(i32 noundef 21, ptr noundef null) #10
  br i1 %17, label %20, label %24

18:                                               ; preds = %15
  %19 = call zeroext i1 @errstart(i32 noundef 21, ptr noundef null)
  br i1 %19, label %20, label %24

20:                                               ; preds = %18, %16
  %21 = call i32 @errcode(i32 noundef 325)
  %22 = call i32 (ptr, ...) @errmsg(ptr noundef @.str.6)
  %23 = call i32 (ptr, ...) @errhint(ptr noundef @.str.7)
  call void @errfinish(ptr noundef @.str.1, i32 noundef 243, ptr noundef @__func__.pg_create_restore_point)
  br label %24

24:                                               ; preds = %20, %18, %16
  unreachable

25:                                               ; No predecessors!
  br label %26

26:                                               ; preds = %25
  br label %27

27:                                               ; preds = %26, %1
  %28 = load i32, ptr @wal_level, align 4
  %29 = icmp sge i32 %28, 1
  br i1 %29, label %43, label %30

30:                                               ; preds = %27
  br label %31

31:                                               ; preds = %30
  br i1 true, label %32, label %34

32:                                               ; preds = %31
  %33 = call zeroext i1 @errstart_cold(i32 noundef 21, ptr noundef null) #10
  br i1 %33, label %36, label %40

34:                                               ; preds = %31
  %35 = call zeroext i1 @errstart(i32 noundef 21, ptr noundef null)
  br i1 %35, label %36, label %40

36:                                               ; preds = %34, %32
  %37 = call i32 @errcode(i32 noundef 325)
  %38 = call i32 (ptr, ...) @errmsg(ptr noundef @.str.11)
  %39 = call i32 (ptr, ...) @errhint(ptr noundef @.str.12)
  call void @errfinish(ptr noundef @.str.1, i32 noundef 249, ptr noundef @__func__.pg_create_restore_point)
  br label %40

40:                                               ; preds = %36, %34, %32
  unreachable

41:                                               ; No predecessors!
  br label %42

42:                                               ; preds = %41
  br label %43

43:                                               ; preds = %42, %27
  %44 = load ptr, ptr %3, align 8
  %45 = call ptr @text_to_cstring(ptr noundef %44)
  store ptr %45, ptr %4, align 8
  %46 = load ptr, ptr %4, align 8
  %47 = call i64 @strlen(ptr noundef %46) #11
  %48 = icmp uge i64 %47, 64
  br i1 %48, label %49, label %61

49:                                               ; preds = %43
  br label %50

50:                                               ; preds = %49
  br i1 true, label %51, label %53

51:                                               ; preds = %50
  %52 = call zeroext i1 @errstart_cold(i32 noundef 21, ptr noundef null) #10
  br i1 %52, label %55, label %58

53:                                               ; preds = %50
  %54 = call zeroext i1 @errstart(i32 noundef 21, ptr noundef null)
  br i1 %54, label %55, label %58

55:                                               ; preds = %53, %51
  %56 = call i32 @errcode(i32 noundef 50856066)
  %57 = call i32 (ptr, ...) @errmsg(ptr noundef @.str.13, i32 noundef 63)
  call void @errfinish(ptr noundef @.str.1, i32 noundef 256, ptr noundef @__func__.pg_create_restore_point)
  br label %58

58:                                               ; preds = %55, %53, %51
  unreachable

59:                                               ; No predecessors!
  br label %60

60:                                               ; preds = %59
  br label %61

61:                                               ; preds = %60, %43
  %62 = load ptr, ptr %4, align 8
  %63 = call i64 @XLogRestorePoint(ptr noundef %62)
  store i64 %63, ptr %5, align 8
  %64 = load i64, ptr %5, align 8
  %65 = call i64 @LSNGetDatum(i64 noundef %64)
  call void @llvm.lifetime.end.p0(i64 8, ptr %5) #9
  call void @llvm.lifetime.end.p0(i64 8, ptr %4) #9
  call void @llvm.lifetime.end.p0(i64 8, ptr %3) #9
  ret i64 %65
}