; Function Attrs: nounwind uwtable
define dso_local i64 @pg_create_restore_point(ptr noundef readonly captures(none) %0) local_unnamed_addr #0 {
  %2 = getelementptr inbounds nuw i8, ptr %0, i64 32
  %3 = load i64, ptr %2, align 8
  %4 = inttoptr i64 %3 to ptr
  %5 = tail call ptr @pg_detoast_datum_packed(ptr noundef %4) #9
  %6 = tail call zeroext i1 @RecoveryInProgress() #9
  br i1 %6, label %7, label %12

7:                                                ; preds = %1
  %8 = tail call zeroext i1 @errstart_cold(i32 noundef 21, ptr noundef null) #10
  tail call void @llvm.assume(i1 %8)
  %9 = tail call i32 @errcode(i32 noundef 325) #9
  %10 = tail call i32 (ptr, ...) @errmsg(ptr noundef nonnull @.str.6) #9
  %11 = tail call i32 (ptr, ...) @errhint(ptr noundef nonnull @.str.7) #9
  tail call void @errfinish(ptr noundef nonnull @.str.1, i32 noundef 243, ptr noundef nonnull @__func__.pg_create_restore_point) #9
  unreachable

12:                                               ; preds = %1
  %13 = load i32, ptr @wal_level, align 4
  %14 = icmp sgt i32 %13, 0
  br i1 %14, label %20, label %15

15:                                               ; preds = %12
  %16 = tail call zeroext i1 @errstart_cold(i32 noundef 21, ptr noundef null) #10
  tail call void @llvm.assume(i1 %16)
  %17 = tail call i32 @errcode(i32 noundef 325) #9
  %18 = tail call i32 (ptr, ...) @errmsg(ptr noundef nonnull @.str.11) #9
  %19 = tail call i32 (ptr, ...) @errhint(ptr noundef nonnull @.str.12) #9
  tail call void @errfinish(ptr noundef nonnull @.str.1, i32 noundef 249, ptr noundef nonnull @__func__.pg_create_restore_point) #9
  unreachable

20:                                               ; preds = %12
  %21 = tail call ptr @text_to_cstring(ptr noundef %5) #9
  %22 = tail call i64 @strlen(ptr noundef nonnull dereferenceable(1) %21) #11
  %23 = icmp ugt i64 %22, 63
  br i1 %23, label %24, label %28

24:                                               ; preds = %20
  %25 = tail call zeroext i1 @errstart_cold(i32 noundef 21, ptr noundef null) #10
  tail call void @llvm.assume(i1 %25)
  %26 = tail call i32 @errcode(i32 noundef 50856066) #9
  %27 = tail call i32 (ptr, ...) @errmsg(ptr noundef nonnull @.str.13, i32 noundef 63) #9
  tail call void @errfinish(ptr noundef nonnull @.str.1, i32 noundef 256, ptr noundef nonnull @__func__.pg_create_restore_point) #9
  unreachable

28:                                               ; preds = %20
  %29 = tail call i64 @XLogRestorePoint(ptr noundef nonnull %21) #9
  ret i64 %29
}